; Function Attrs: mustprogress uwtable
define internal void @_ZN11opencv_test12_GLOBAL__N_146gtest_Perf_Objdetect_Not_QRCode_EvalGenerator_B5cxx11Ev(ptr dead_on_unwind noalias writable sret(%"class.testing::internal::ParamGenerator.43") align 8 %0) #4 {
  %2 = alloca %"class.testing::internal::CartesianProductHolder2.123", align 8
  call void @llvm.lifetime.start.p0(i64 56, ptr nonnull %2) #33
  store ptr @.str.136, ptr %2, align 8, !tbaa !108, !alias.scope !110
  %3 = getelementptr inbounds nuw i8, ptr %2, i64 8
  store ptr @.str.131, ptr %3, align 8, !tbaa !113, !alias.scope !110
  %4 = getelementptr inbounds nuw i8, ptr %2, i64 16
  store ptr @.str.132, ptr %4, align 8, !tbaa !114, !alias.scope !110
  %5 = getelementptr inbounds nuw i8, ptr %2, i64 24
  store i64 2061584302720, ptr %5, align 8, !alias.scope !110
  %6 = getelementptr inbounds nuw i8, ptr %2, i64 32
  store i64 3092376454400, ptr %6, align 8, !alias.scope !110
  %7 = getelementptr inbounds nuw i8, ptr %2, i64 40
  store i64 4638564681600, ptr %7, align 8, !alias.scope !110
  %8 = getelementptr inbounds nuw i8, ptr %2, i64 48
  store i64 9277129363200, ptr %8, align 8, !alias.scope !110
  call void @_ZNK7testing8internal23CartesianProductHolder2INS0_11ValueArray3IPKcS4_S4_EENS0_11ValueArray4IN2cv5Size_IiEES9_S9_S9_EEEcvNS0_14ParamGeneratorISt5tupleIJT_T0_EEEEINSt7__cxx1112basic_stringIcSt11char_traitsIcESaIcEEES9_EEv(ptr dead_on_unwind writable sret(%"class.testing::internal::ParamGenerator.43") align 8 %0, ptr noundef nonnull align 8 dereferenceable(56) %2)
  call void @llvm.lifetime.end.p0(i64 56, ptr nonnull %2) #33
  ret void
}